target datalayout = "e-m:e-p270:32:32-p271:32:32-p272:64:64-i64:64-i128:128-f80:128-n8:16:32:64-S128"
target triple = "x86_64-pc-linux-gnu"

%"class.pxrInternal_v0_24__pxrReserved__::HdUnitTestDelegate" = type { %"class.pxrInternal_v0_24__pxrReserved__::HdSceneDelegate", %"class.std::map", %"class.std::map.1", %"class.std::map.6", %"class.std::map.11", %"class.std::map.16", %"class.std::map.21", %"class.std::map.26", %"class.std::map.31", %"class.std::map.36", %"class.std::map.41", %"class.pxrInternal_v0_24__pxrReserved__::TfHashSet", %"class.std::map.51", %"class.std::map.51", i8, i32, i8, %"class.std::map.56", %"class.std::map.61" }
%"class.pxrInternal_v0_24__pxrReserved__::HdSceneDelegate" = type { ptr, ptr, %"class.pxrInternal_v0_24__pxrReserved__::SdfPath" }
%"class.pxrInternal_v0_24__pxrReserved__::SdfPath" = type { %"struct.pxrInternal_v0_24__pxrReserved__::Sdf_PathNodeHandleImpl", %"struct.pxrInternal_v0_24__pxrReserved__::Sdf_PathNodeHandleImpl.0" }
%"struct.pxrInternal_v0_24__pxrReserved__::Sdf_PathNodeHandleImpl" = type { %"struct.pxrInternal_v0_24__pxrReserved__::Sdf_Pool<pxrInternal_v0_24__pxrReserved__::Sdf_PathPrimTag, 24, 8>::Handle" }
%"struct.pxrInternal_v0_24__pxrReserved__::Sdf_Pool<pxrInternal_v0_24__pxrReserved__::Sdf_PathPrimTag, 24, 8>::Handle" = type { i32 }
%"struct.pxrInternal_v0_24__pxrReserved__::Sdf_PathNodeHandleImpl.0" = type { %"struct.pxrInternal_v0_24__pxrReserved__::Sdf_Pool<pxrInternal_v0_24__pxrReserved__::Sdf_PathPropTag, 24, 8>::Handle" }
%"struct.pxrInternal_v0_24__pxrReserved__::Sdf_Pool<pxrInternal_v0_24__pxrReserved__::Sdf_PathPropTag, 24, 8>::Handle" = type { i32 }
%"class.std::map" = type { %"class.std::_Rb_tree" }
%"class.std::_Rb_tree" = type { %"struct.std::_Rb_tree<pxrInternal_v0_24__pxrReserved__::SdfPath, std::pair<const pxrInternal_v0_24__pxrReserved__::SdfPath, pxrInternal_v0_24__pxrReserved__::HdUnitTestDelegate::_Mesh>, std::_Select1st<std::pair<const pxrInternal_v0_24__pxrReserved__::SdfPath, pxrInternal_v0_24__pxrReserved__::HdUnitTestDelegate::_Mesh>>, std::less<pxrInternal_v0_24__pxrReserved__::SdfPath>>::_Rb_tree_impl" }
%"struct.std::_Rb_tree<pxrInternal_v0_24__pxrReserved__::SdfPath, std::pair<const pxrInternal_v0_24__pxrReserved__::SdfPath, pxrInternal_v0_24__pxrReserved__::HdUnitTestDelegate::_Mesh>, std::_Select1st<std::pair<const pxrInternal_v0_24__pxrReserved__::SdfPath, pxrInternal_v0_24__pxrReserved__::HdUnitTestDelegate::_Mesh>>, std::less<pxrInternal_v0_24__pxrReserved__::SdfPath>>::_Rb_tree_impl" = type { [8 x i8], %"struct.std::_Rb_tree_header" }
%"struct.std::_Rb_tree_header" = type { %"struct.std::_Rb_tree_node_base", i64 }
%"struct.std::_Rb_tree_node_base" = type { i32, ptr, ptr, ptr }
%"class.std::map.1" = type { %"class.std::_Rb_tree.2" }
%"class.std::_Rb_tree.2" = type { %"struct.std::_Rb_tree<pxrInternal_v0_24__pxrReserved__::SdfPath, std::pair<const pxrInternal_v0_24__pxrReserved__::SdfPath, pxrInternal_v0_24__pxrReserved__::HdUnitTestDelegate::_Curves>, std::_Select1st<std::pair<const pxrInternal_v0_24__pxrReserved__::SdfPath, pxrInternal_v0_24__pxrReserved__::HdUnitTestDelegate::_Curves>>, std::less<pxrInternal_v0_24__pxrReserved__::SdfPath>>::_Rb_tree_impl" }
%"struct.std::_Rb_tree<pxrInternal_v0_24__pxrReserved__::SdfPath, std::pair<const pxrInternal_v0_24__pxrReserved__::SdfPath, pxrInternal_v0_24__pxrReserved__::HdUnitTestDelegate::_Curves>, std::_Select1st<std::pair<const pxrInternal_v0_24__pxrReserved__::SdfPath, pxrInternal_v0_24__pxrReserved__::HdUnitTestDelegate::_Curves>>, std::less<pxrInternal_v0_24__pxrReserved__::SdfPath>>::_Rb_tree_impl" = type { [8 x i8], %"struct.std::_Rb_tree_header" }
%"class.std::map.6" = type { %"class.std::_Rb_tree.7" }
%"class.std::_Rb_tree.7" = type { %"struct.std::_Rb_tree<pxrInternal_v0_24__pxrReserved__::SdfPath, std::pair<const pxrInternal_v0_24__pxrReserved__::SdfPath, pxrInternal_v0_24__pxrReserved__::HdUnitTestDelegate::_Points>, std::_Select1st<std::pair<const pxrInternal_v0_24__pxrReserved__::SdfPath, pxrInternal_v0_24__pxrReserved__::HdUnitTestDelegate::_Points>>, std::less<pxrInternal_v0_24__pxrReserved__::SdfPath>>::_Rb_tree_impl" }
%"struct.std::_Rb_tree<pxrInternal_v0_24__pxrReserved__::SdfPath, std::pair<const pxrInternal_v0_24__pxrReserved__::SdfPath, pxrInternal_v0_24__pxrReserved__::HdUnitTestDelegate::_Points>, std::_Select1st<std::pair<const pxrInternal_v0_24__pxrReserved__::SdfPath, pxrInternal_v0_24__pxrReserved__::HdUnitTestDelegate::_Points>>, std::less<pxrInternal_v0_24__pxrReserved__::SdfPath>>::_Rb_tree_impl" = type { [8 x i8], %"struct.std::_Rb_tree_header" }
%"class.std::map.11" = type { %"class.std::_Rb_tree.12" }
%"class.std::_Rb_tree.12" = type { %"struct.std::_Rb_tree<pxrInternal_v0_24__pxrReserved__::SdfPath, std::pair<const pxrInternal_v0_24__pxrReserved__::SdfPath, pxrInternal_v0_24__pxrReserved__::HdUnitTestDelegate::_Instancer>, std::_Select1st<std::pair<const pxrInternal_v0_24__pxrReserved__::SdfPath, pxrInternal_v0_24__pxrReserved__::HdUnitTestDelegate::_Instancer>>, std::less<pxrInternal_v0_24__pxrReserved__::SdfPath>>::_Rb_tree_impl" }
%"struct.std::_Rb_tree<pxrInternal_v0_24__pxrReserved__::SdfPath, std::pair<const pxrInternal_v0_24__pxrReserved__::SdfPath, pxrInternal_v0_24__pxrReserved__::HdUnitTestDelegate::_Instancer>, std::_Select1st<std::pair<const pxrInternal_v0_24__pxrReserved__::SdfPath, pxrInternal_v0_24__pxrReserved__::HdUnitTestDelegate::_Instancer>>, std::less<pxrInternal_v0_24__pxrReserved__::SdfPath>>::_Rb_tree_impl" = type { [8 x i8], %"struct.std::_Rb_tree_header" }
%"class.std::map.16" = type { %"class.std::_Rb_tree.17" }
%"class.std::_Rb_tree.17" = type { %"struct.std::_Rb_tree<pxrInternal_v0_24__pxrReserved__::SdfPath, std::pair<const pxrInternal_v0_24__pxrReserved__::SdfPath, std::vector<pxrInternal_v0_24__pxrReserved__::HdUnitTestDelegate::_Primvar>>, std::_Select1st<std::pair<const pxrInternal_v0_24__pxrReserved__::SdfPath, std::vector<pxrInternal_v0_24__pxrReserved__::HdUnitTestDelegate::_Primvar>>>, std::less<pxrInternal_v0_24__pxrReserved__::SdfPath>>::_Rb_tree_impl" }
%"struct.std::_Rb_tree<pxrInternal_v0_24__pxrReserved__::SdfPath, std::pair<const pxrInternal_v0_24__pxrReserved__::SdfPath, std::vector<pxrInternal_v0_24__pxrReserved__::HdUnitTestDelegate::_Primvar>>, std::_Select1st<std::pair<const pxrInternal_v0_24__pxrReserved__::SdfPath, std::vector<pxrInternal_v0_24__pxrReserved__::HdUnitTestDelegate::_Primvar>>>, std::less<pxrInternal_v0_24__pxrReserved__::SdfPath>>::_Rb_tree_impl" = type { [8 x i8], %"struct.std::_Rb_tree_header" }
%"class.std::map.21" = type { %"class.std::_Rb_tree.22" }
%"class.std::_Rb_tree.22" = type { %"struct.std::_Rb_tree<pxrInternal_v0_24__pxrReserved__::SdfPath, std::pair<const pxrInternal_v0_24__pxrReserved__::SdfPath, pxrInternal_v0_24__pxrReserved__::VtValue>, std::_Select1st<std::pair<const pxrInternal_v0_24__pxrReserved__::SdfPath, pxrInternal_v0_24__pxrReserved__::VtValue>>, std::less<pxrInternal_v0_24__pxrReserved__::SdfPath>>::_Rb_tree_impl" }
%"struct.std::_Rb_tree<pxrInternal_v0_24__pxrReserved__::SdfPath, std::pair<const pxrInternal_v0_24__pxrReserved__::SdfPath, pxrInternal_v0_24__pxrReserved__::VtValue>, std::_Select1st<std::pair<const pxrInternal_v0_24__pxrReserved__::SdfPath, pxrInternal_v0_24__pxrReserved__::VtValue>>, std::less<pxrInternal_v0_24__pxrReserved__::SdfPath>>::_Rb_tree_impl" = type { [8 x i8], %"struct.std::_Rb_tree_header" }
%"class.std::map.26" = type { %"class.std::_Rb_tree.27" }
%"class.std::_Rb_tree.27" = type { %"struct.std::_Rb_tree<pxrInternal_v0_24__pxrReserved__::SdfPath, std::pair<const pxrInternal_v0_24__pxrReserved__::SdfPath, pxrInternal_v0_24__pxrReserved__::HdUnitTestDelegate::_Camera>, std::_Select1st<std::pair<const pxrInternal_v0_24__pxrReserved__::SdfPath, pxrInternal_v0_24__pxrReserved__::HdUnitTestDelegate::_Camera>>, std::less<pxrInternal_v0_24__pxrReserved__::SdfPath>>::_Rb_tree_impl" }
%"struct.std::_Rb_tree<pxrInternal_v0_24__pxrReserved__::SdfPath, std::pair<const pxrInternal_v0_24__pxrReserved__::SdfPath, pxrInternal_v0_24__pxrReserved__::HdUnitTestDelegate::_Camera>, std::_Select1st<std::pair<const pxrInternal_v0_24__pxrReserved__::SdfPath, pxrInternal_v0_24__pxrReserved__::HdUnitTestDelegate::_Camera>>, std::less<pxrInternal_v0_24__pxrReserved__::SdfPath>>::_Rb_tree_impl" = type { [8 x i8], %"struct.std::_Rb_tree_header" }
%"class.std::map.31" = type { %"class.std::_Rb_tree.32" }
%"class.std::_Rb_tree.32" = type { %"struct.std::_Rb_tree<pxrInternal_v0_24__pxrReserved__::SdfPath, std::pair<const pxrInternal_v0_24__pxrReserved__::SdfPath, pxrInternal_v0_24__pxrReserved__::HdUnitTestDelegate::_RenderBuffer>, std::_Select1st<std::pair<const pxrInternal_v0_24__pxrReserved__::SdfPath, pxrInternal_v0_24__pxrReserved__::HdUnitTestDelegate::_RenderBuffer>>, std::less<pxrInternal_v0_24__pxrReserved__::SdfPath>>::_Rb_tree_impl" }
%"struct.std::_Rb_tree<pxrInternal_v0_24__pxrReserved__::SdfPath, std::pair<const pxrInternal_v0_24__pxrReserved__::SdfPath, pxrInternal_v0_24__pxrReserved__::HdUnitTestDelegate::_RenderBuffer>, std::_Select1st<std::pair<const pxrInternal_v0_24__pxrReserved__::SdfPath, pxrInternal_v0_24__pxrReserved__::HdUnitTestDelegate::_RenderBuffer>>, std::less<pxrInternal_v0_24__pxrReserved__::SdfPath>>::_Rb_tree_impl" = type { [8 x i8], %"struct.std::_Rb_tree_header" }
%"class.std::map.36" = type { %"class.std::_Rb_tree.37" }
%"class.std::_Rb_tree.37" = type { %"struct.std::_Rb_tree<pxrInternal_v0_24__pxrReserved__::SdfPath, std::pair<const pxrInternal_v0_24__pxrReserved__::SdfPath, pxrInternal_v0_24__pxrReserved__::HdUnitTestDelegate::_Light>, std::_Select1st<std::pair<const pxrInternal_v0_24__pxrReserved__::SdfPath, pxrInternal_v0_24__pxrReserved__::HdUnitTestDelegate::_Light>>, std::less<pxrInternal_v0_24__pxrReserved__::SdfPath>>::_Rb_tree_impl" }
%"struct.std::_Rb_tree<pxrInternal_v0_24__pxrReserved__::SdfPath, std::pair<const pxrInternal_v0_24__pxrReserved__::SdfPath, pxrInternal_v0_24__pxrReserved__::HdUnitTestDelegate::_Light>, std::_Select1st<std::pair<const pxrInternal_v0_24__pxrReserved__::SdfPath, pxrInternal_v0_24__pxrReserved__::HdUnitTestDelegate::_Light>>, std::less<pxrInternal_v0_24__pxrReserved__::SdfPath>>::_Rb_tree_impl" = type { [8 x i8], %"struct.std::_Rb_tree_header" }
%"class.std::map.41" = type { %"class.std::_Rb_tree.42" }
%"class.std::_Rb_tree.42" = type { %"struct.std::_Rb_tree<pxrInternal_v0_24__pxrReserved__::SdfPath, std::pair<const pxrInternal_v0_24__pxrReserved__::SdfPath, pxrInternal_v0_24__pxrReserved__::HdUnitTestDelegate::_Task>, std::_Select1st<std::pair<const pxrInternal_v0_24__pxrReserved__::SdfPath, pxrInternal_v0_24__pxrReserved__::HdUnitTestDelegate::_Task>>, std::less<pxrInternal_v0_24__pxrReserved__::SdfPath>>::_Rb_tree_impl" }
%"struct.std::_Rb_tree<pxrInternal_v0_24__pxrReserved__::SdfPath, std::pair<const pxrInternal_v0_24__pxrReserved__::SdfPath, pxrInternal_v0_24__pxrReserved__::HdUnitTestDelegate::_Task>, std::_Select1st<std::pair<const pxrInternal_v0_24__pxrReserved__::SdfPath, pxrInternal_v0_24__pxrReserved__::HdUnitTestDelegate::_Task>>, std::less<pxrInternal_v0_24__pxrReserved__::SdfPath>>::_Rb_tree_impl" = type { [8 x i8], %"struct.std::_Rb_tree_header" }
%"class.pxrInternal_v0_24__pxrReserved__::TfHashSet" = type { %"class.std::unordered_set" }
%"class.std::unordered_set" = type { %"class.std::_Hashtable" }
%"class.std::_Hashtable" = type { ptr, i64, %"struct.std::__detail::_Hash_node_base", i64, %"struct.std::__detail::_Prime_rehash_policy", ptr }
%"struct.std::__detail::_Hash_node_base" = type { ptr }
%"struct.std::__detail::_Prime_rehash_policy" = type { float, i64 }
%"class.std::map.51" = type { %"class.std::_Rb_tree.52" }
%"class.std::_Rb_tree.52" = type { %"struct.std::_Rb_tree<pxrInternal_v0_24__pxrReserved__::SdfPath, std::pair<const pxrInternal_v0_24__pxrReserved__::SdfPath, pxrInternal_v0_24__pxrReserved__::SdfPath>, std::_Select1st<std::pair<const pxrInternal_v0_24__pxrReserved__::SdfPath, pxrInternal_v0_24__pxrReserved__::SdfPath>>, std::less<pxrInternal_v0_24__pxrReserved__::SdfPath>>::_Rb_tree_impl" }
%"struct.std::_Rb_tree<pxrInternal_v0_24__pxrReserved__::SdfPath, std::pair<const pxrInternal_v0_24__pxrReserved__::SdfPath, pxrInternal_v0_24__pxrReserved__::SdfPath>, std::_Select1st<std::pair<const pxrInternal_v0_24__pxrReserved__::SdfPath, pxrInternal_v0_24__pxrReserved__::SdfPath>>, std::less<pxrInternal_v0_24__pxrReserved__::SdfPath>>::_Rb_tree_impl" = type { [8 x i8], %"struct.std::_Rb_tree_header" }
%"class.std::map.56" = type { %"class.std::_Rb_tree.57" }
%"class.std::_Rb_tree.57" = type { %"struct.std::_Rb_tree<pxrInternal_v0_24__pxrReserved__::SdfPath, std::pair<const pxrInternal_v0_24__pxrReserved__::SdfPath, int>, std::_Select1st<std::pair<const pxrInternal_v0_24__pxrReserved__::SdfPath, int>>, std::less<pxrInternal_v0_24__pxrReserved__::SdfPath>>::_Rb_tree_impl" }
%"struct.std::_Rb_tree<pxrInternal_v0_24__pxrReserved__::SdfPath, std::pair<const pxrInternal_v0_24__pxrReserved__::SdfPath, int>, std::_Select1st<std::pair<const pxrInternal_v0_24__pxrReserved__::SdfPath, int>>, std::less<pxrInternal_v0_24__pxrReserved__::SdfPath>>::_Rb_tree_impl" = type { [8 x i8], %"struct.std::_Rb_tree_header" }
%"class.std::map.61" = type { %"class.std::_Rb_tree.62" }
%"class.std::_Rb_tree.62" = type { %"struct.std::_Rb_tree<pxrInternal_v0_24__pxrReserved__::SdfPath, std::pair<const pxrInternal_v0_24__pxrReserved__::SdfPath, bool>, std::_Select1st<std::pair<const pxrInternal_v0_24__pxrReserved__::SdfPath, bool>>, std::less<pxrInternal_v0_24__pxrReserved__::SdfPath>>::_Rb_tree_impl" }
%"struct.std::_Rb_tree<pxrInternal_v0_24__pxrReserved__::SdfPath, std::pair<const pxrInternal_v0_24__pxrReserved__::SdfPath, bool>, std::_Select1st<std::pair<const pxrInternal_v0_24__pxrReserved__::SdfPath, bool>>, std::less<pxrInternal_v0_24__pxrReserved__::SdfPath>>::_Rb_tree_impl" = type { [8 x i8], %"struct.std::_Rb_tree_header" }

; Function Attrs: mustprogress nounwind uwtable
define linkonce_odr void @_ZN32pxrInternal_v0_24__pxrReserved__8Sdf_PoolINS_15Sdf_PathPropTagELj24ELj8ELj16384EE6HandleC2EDn(ptr noundef nonnull align 4 dereferenceable(4) %0, ptr %1) unnamed_addr #2 comdat align 2 {
  %3 = alloca ptr, align 8
  %4 = alloca ptr, align 8
  store ptr %0, ptr %3, align 8
  store ptr %1, ptr %4, align 8
  %5 = load ptr, ptr %3, align 8
  %6 = getelementptr inbounds nuw %"struct.pxrInternal_v0_24__pxrReserved__::Sdf_Pool<pxrInternal_v0_24__pxrReserved__::Sdf_PathPropTag, 24, 8>::Handle", ptr %5, i32 0, i32 0
  store i32 0, ptr %6, align 4
  ret void
}

; Function Attrs: mustprogress nounwind uwtable
define linkonce_odr void @_ZN32pxrInternal_v0_24__pxrReserved__8Sdf_PoolINS_15Sdf_PathPrimTagELj24ELj8ELj16384EE6HandleC2EDn(ptr noundef nonnull align 4 dereferenceable(4) %0, ptr %1) unnamed_addr #2 comdat align 2 {
  %3 = alloca ptr, align 8
  %4 = alloca ptr, align 8
  store ptr %0, ptr %3, align 8
  store ptr %1, ptr %4, align 8
  %5 = load ptr, ptr %3, align 8
  %6 = getelementptr inbounds nuw %"struct.pxrInternal_v0_24__pxrReserved__::Sdf_Pool<pxrInternal_v0_24__pxrReserved__::Sdf_PathPrimTag, 24, 8>::Handle", ptr %5, i32 0, i32 0
  store i32 0, ptr %6, align 4
  ret void
}

; Function Attrs: mustprogress nounwind uwtable
define linkonce_odr void @_ZN32pxrInternal_v0_24__pxrReserved__22Sdf_PathNodeHandleImplINS_8Sdf_PoolINS_15Sdf_PathPropTagELj24ELj8ELj16384EE6HandleELb0EKNS_12Sdf_PathNodeEEC2Ev(ptr noundef nonnull align 4 dereferenceable(4) %0) unnamed_addr #2 comdat align 2 {
  %2 = alloca ptr, align 8
  store ptr %0, ptr %2, align 8
  %3 = load ptr, ptr %2, align 8
  %4 = getelementptr inbounds nuw %"struct.pxrInternal_v0_24__pxrReserved__::Sdf_PathNodeHandleImpl.0", ptr %3, i32 0, i32 0
  call void @_ZN32pxrInternal_v0_24__pxrReserved__8Sdf_PoolINS_15Sdf_PathPropTagELj24ELj8ELj16384EE6HandleC2EDn(ptr noundef nonnull align 4 dereferenceable(4) %4, ptr null) #15
  ret void
}

; Function Attrs: mustprogress nounwind uwtable
define linkonce_odr void @_ZN32pxrInternal_v0_24__pxrReserved__22Sdf_PathNodeHandleImplINS_8Sdf_PoolINS_15Sdf_PathPrimTagELj24ELj8ELj16384EE6HandleELb1EKNS_12Sdf_PathNodeEEC2Ev(ptr noundef nonnull align 4 dereferenceable(4) %0) unnamed_addr #2 comdat align 2 {
  %2 = alloca ptr, align 8
  store ptr %0, ptr %2, align 8
  %3 = load ptr, ptr %2, align 8
  %4 = getelementptr inbounds nuw %"struct.pxrInternal_v0_24__pxrReserved__::Sdf_PathNodeHandleImpl", ptr %3, i32 0, i32 0
  call void @_ZN32pxrInternal_v0_24__pxrReserved__8Sdf_PoolINS_15Sdf_PathPrimTagELj24ELj8ELj16384EE6HandleC2EDn(ptr noundef nonnull align 4 dereferenceable(4) %4, ptr null) #15
  ret void
}

; Function Attrs: mustprogress uwtable
define linkonce_odr noundef zeroext i1 @_ZN32pxrInternal_v0_24__pxrReserved__11TfMapLookupISt3mapINS_7SdfPathES2_St4lessIS2_ESaISt4pairIKS2_S2_EEES2_S2_EEbRKT_RKT0_PT1_(ptr noundef nonnull align 8 dereferenceable(48) %0, ptr noundef nonnull align 4 dereferenceable(8) %1, ptr noundef %2) #0 comdat {
  %4 = alloca ptr, align 8
  %5 = alloca ptr, align 8
  %6 = alloca ptr, align 8
  store ptr %0, ptr %4, align 8
  store ptr %1, ptr %5, align 8
  store ptr %2, ptr %6, align 8
  %7 = load ptr, ptr %4, align 8
  %8 = load ptr, ptr %5, align 8
  %9 = load ptr, ptr %6, align 8
  %10 = call noundef zeroext i1 @_ZN32pxrInternal_v0_24__pxrReserved__18Tf_MapLookupHelperISt3mapINS_7SdfPathES2_St4lessIS2_ESaISt4pairIKS2_S2_EEEE6LookupIS2_S2_EEbRKS9_RKT_PT0_(ptr noundef nonnull align 8 dereferenceable(48) %7, ptr noundef nonnull align 4 dereferenceable(8) %8, ptr noundef %9)
  ret i1 %10
}

; Function Attrs: mustprogress nounwind uwtable
define linkonce_odr void @_ZN32pxrInternal_v0_24__pxrReserved__7SdfPathC2Ev(ptr noundef nonnull align 4 dereferenceable(8) %0) unnamed_addr #2 comdat align 2 {
  %2 = alloca ptr, align 8
  store ptr %0, ptr %2, align 8
  %3 = load ptr, ptr %2, align 8
  %4 = getelementptr inbounds nuw %"class.pxrInternal_v0_24__pxrReserved__::SdfPath", ptr %3, i32 0, i32 0
  call void @_ZN32pxrInternal_v0_24__pxrReserved__22Sdf_PathNodeHandleImplINS_8Sdf_PoolINS_15Sdf_PathPrimTagELj24ELj8ELj16384EE6HandleELb1EKNS_12Sdf_PathNodeEEC2Ev(ptr noundef nonnull align 4 dereferenceable(4) %4) #15
  %5 = getelementptr inbounds nuw %"class.pxrInternal_v0_24__pxrReserved__::SdfPath", ptr %3, i32 0, i32 1
  call void @_ZN32pxrInternal_v0_24__pxrReserved__22Sdf_PathNodeHandleImplINS_8Sdf_PoolINS_15Sdf_PathPropTagELj24ELj8ELj16384EE6HandleELb0EKNS_12Sdf_PathNodeEEC2Ev(ptr noundef nonnull align 4 dereferenceable(4) %5) #15
  ret void
}

; Function Attrs: mustprogress uwtable
define void @_ZN32pxrInternal_v0_24__pxrReserved__18HdUnitTestDelegate13GetMaterialIdERKNS_7SdfPathE(ptr dead_on_unwind noalias writable sret(%"class.pxrInternal_v0_24__pxrReserved__::SdfPath") align 4 %0, ptr noundef nonnull align 8 dereferenceable(768) %1, ptr noundef nonnull align 4 dereferenceable(8) %2) unnamed_addr #0 align 2 personality ptr @__gxx_personality_v0 {
  %4 = alloca ptr, align 8
  %5 = alloca ptr, align 8
  %6 = alloca ptr, align 8
  %7 = alloca i1, align 1
  %8 = alloca ptr, align 8
  %9 = alloca i32, align 4
  store ptr %0, ptr %4, align 8
  store ptr %1, ptr %5, align 8
  store ptr %2, ptr %6, align 8
  %10 = load ptr, ptr %5, align 8
  store i1 false, ptr %7, align 1
  call void @_ZN32pxrInternal_v0_24__pxrReserved__7SdfPathC2Ev(ptr noundef nonnull align 4 dereferenceable(8) %0) #15
  %11 = getelementptr inbounds nuw %"class.pxrInternal_v0_24__pxrReserved__::HdUnitTestDelegate", ptr %10, i32 0, i32 12
  %12 = load ptr, ptr %6, align 8
  %13 = invoke noundef zeroext i1 @_ZN32pxrInternal_v0_24__pxrReserved__11TfMapLookupISt3mapINS_7SdfPathES2_St4lessIS2_ESaISt4pairIKS2_S2_EEES2_S2_EEbRKT_RKT0_PT1_(ptr noundef nonnull align 8 dereferenceable(48) %11, ptr noundef nonnull align 4 dereferenceable(8) %12, ptr noundef %0)
          to label %14 unwind label %16

14:                                               ; preds = %3
  store i1 true, ptr %7, align 1
  %15 = load i1, ptr %7, align 1
  br i1 %15, label %21, label %20

16:                                               ; preds = %3
  %17 = landingpad { ptr, i32 }
          cleanup
  %18 = extractvalue { ptr, i32 } %17, 0
  store ptr %18, ptr %8, align 8
  %19 = extractvalue { ptr, i32 } %17, 1
  store i32 %19, ptr %9, align 4
  call void @_ZN32pxrInternal_v0_24__pxrReserved__7SdfPathD2Ev(ptr noundef nonnull align 4 dereferenceable(8) %0) #15
  br label %22

20:                                               ; preds = %14
  call void @_ZN32pxrInternal_v0_24__pxrReserved__7SdfPathD2Ev(ptr noundef nonnull align 4 dereferenceable(8) %0) #15
  br label %21

21:                                               ; preds = %20, %14
  ret void

22:                                               ; preds = %16
  %23 = load ptr, ptr %8, align 8
  %24 = load i32, ptr %9, align 4
  %25 = insertvalue { ptr, i32 } poison, ptr %23, 0
  %26 = insertvalue { ptr, i32 } %25, i32 %24, 1
  resume { ptr, i32 } %26
}