; Function Attrs: mustprogress uwtable
define void @_ZN32pxrInternal_v0_24__pxrReserved__18HdUnitTestDelegate13GetMaterialIdERKNS_7SdfPathE(ptr dead_on_unwind noalias writable sret(%"class.pxrInternal_v0_24__pxrReserved__::SdfPath") align 4 %0, ptr noundef nonnull align 8 dereferenceable(768) %1, ptr noundef nonnull align 4 dereferenceable(8) %2) unnamed_addr #0 align 2 personality ptr @__gxx_personality_v0 {
  store i32 0, ptr %0, align 4
  %4 = getelementptr inbounds nuw i8, ptr %0, i64 4
  store i32 0, ptr %4, align 4
  %5 = getelementptr inbounds nuw i8, ptr %1, i64 560
  %6 = invoke noundef zeroext i1 @_ZN32pxrInternal_v0_24__pxrReserved__18Tf_MapLookupHelperISt3mapINS_7SdfPathES2_St4lessIS2_ESaISt4pairIKS2_S2_EEEE6LookupIS2_S2_EEbRKS9_RKT_PT0_(ptr noundef nonnull align 8 dereferenceable(48) %5, ptr noundef nonnull align 4 dereferenceable(8) %2, ptr noundef nonnull %0)
          to label %_ZN32pxrInternal_v0_24__pxrReserved__11TfMapLookupISt3mapINS_7SdfPathES2_St4lessIS2_ESaISt4pairIKS2_S2_EEES2_S2_EEbRKT_RKT0_PT1_.exit unwind label %7

7:                                                ; preds = %3
  %8 = landingpad { ptr, i32 }
          cleanup
  tail call void @_ZN32pxrInternal_v0_24__pxrReserved__7SdfPathD2Ev(ptr noundef nonnull align 4 dereferenceable(8) %0) #22
  resume { ptr, i32 } %8

_ZN32pxrInternal_v0_24__pxrReserved__11TfMapLookupISt3mapINS_7SdfPathES2_St4lessIS2_ESaISt4pairIKS2_S2_EEES2_S2_EEbRKT_RKT0_PT1_.exit: ; preds = %3
  ret void
}